target datalayout = "e-m:e-p270:32:32-p271:32:32-p272:64:64-i64:64-i128:128-f80:128-n8:16:32:64-S128"
target triple = "x86_64-pc-linux-gnu"

%struct.IAMFContext = type { ptr, i32, ptr, i32, ptr, i32, ptr, i32 }
%struct.IAMFAudioElement = type { ptr, ptr, i32, ptr, i32, i32, ptr, i32 }
%struct.AVIAMFParamDefinition = type { ptr, i64, i64, i32, i32, i32, i32, i32, i32 }
%struct.IAMFCodecConfig = type { i32, i32, i32, i32, i32, i32, i32, ptr }
%struct.IAMFParamDefinition = type { ptr, ptr, i32, i64 }

@.str.15 = private unnamed_addr constant [55 x i8] c"parameter_rate needed but not set for parameter_id %u\0A\00", align 1

; Function Attrs: nounwind uwtable
define internal i32 @add_param_definition(ptr noundef %0, ptr noundef %1, ptr noundef %2, ptr noundef %3) #0 {
  %5 = alloca i32, align 4
  %6 = alloca ptr, align 8
  %7 = alloca ptr, align 8
  %8 = alloca ptr, align 8
  %9 = alloca ptr, align 8
  %10 = alloca ptr, align 8
  %11 = alloca ptr, align 8
  %12 = alloca ptr, align 8
  %13 = alloca i32, align 4
  store ptr %0, ptr %6, align 8, !tbaa !4
  store ptr %1, ptr %7, align 8, !tbaa !95
  store ptr %2, ptr %8, align 8, !tbaa !66
  store ptr %3, ptr %9, align 8, !tbaa !11
  call void @llvm.lifetime.start.p0(i64 8, ptr %10) #10
  call void @llvm.lifetime.start.p0(i64 8, ptr %11) #10
  call void @llvm.lifetime.start.p0(i64 8, ptr %12) #10
  store ptr null, ptr %12, align 8, !tbaa !73
  %14 = load ptr, ptr %6, align 8, !tbaa !4
  %15 = getelementptr inbounds nuw %struct.IAMFContext, ptr %14, i32 0, i32 6
  %16 = load ptr, ptr %15, align 8, !tbaa !122
  %17 = load ptr, ptr %6, align 8, !tbaa !4
  %18 = getelementptr inbounds nuw %struct.IAMFContext, ptr %17, i32 0, i32 7
  %19 = load i32, ptr %18, align 8, !tbaa !121
  %20 = add nsw i32 %19, 1
  %21 = sext i32 %20 to i64
  %22 = call ptr @av_realloc_array(ptr noundef %16, i64 noundef %21, i64 noundef 8)
  store ptr %22, ptr %10, align 8, !tbaa !126
  %23 = load ptr, ptr %10, align 8, !tbaa !126
  %24 = icmp ne ptr %23, null
  br i1 %24, label %26, label %25

25:                                               ; preds = %4
  store i32 -12, ptr %5, align 4
  store i32 1, ptr %13, align 4
  br label %140

26:                                               ; preds = %4
  %27 = load ptr, ptr %10, align 8, !tbaa !126
  %28 = load ptr, ptr %6, align 8, !tbaa !4
  %29 = getelementptr inbounds nuw %struct.IAMFContext, ptr %28, i32 0, i32 6
  store ptr %27, ptr %29, align 8, !tbaa !122
  %30 = load ptr, ptr %8, align 8, !tbaa !66
  %31 = icmp ne ptr %30, null
  br i1 %31, label %32, label %42

32:                                               ; preds = %26
  %33 = load ptr, ptr %6, align 8, !tbaa !4
  %34 = getelementptr inbounds nuw %struct.IAMFContext, ptr %33, i32 0, i32 0
  %35 = load ptr, ptr %34, align 8, !tbaa !117
  %36 = load ptr, ptr %8, align 8, !tbaa !66
  %37 = getelementptr inbounds nuw %struct.IAMFAudioElement, ptr %36, i32 0, i32 5
  %38 = load i32, ptr %37, align 4, !tbaa !76
  %39 = zext i32 %38 to i64
  %40 = getelementptr inbounds nuw ptr, ptr %35, i64 %39
  %41 = load ptr, ptr %40, align 8, !tbaa !73
  store ptr %41, ptr %12, align 8, !tbaa !73
  br label %42

42:                                               ; preds = %32, %26
  %43 = load ptr, ptr %7, align 8, !tbaa !95
  %44 = getelementptr inbounds nuw %struct.AVIAMFParamDefinition, ptr %43, i32 0, i32 6
  %45 = load i32, ptr %44, align 4, !tbaa !127
  %46 = icmp ne i32 %45, 0
  br i1 %46, label %61, label %47

47:                                               ; preds = %42
  %48 = load ptr, ptr %12, align 8, !tbaa !73
  %49 = icmp ne ptr %48, null
  br i1 %49, label %55, label %50

50:                                               ; preds = %47
  %51 = load ptr, ptr %9, align 8, !tbaa !11
  %52 = load ptr, ptr %7, align 8, !tbaa !95
  %53 = getelementptr inbounds nuw %struct.AVIAMFParamDefinition, ptr %52, i32 0, i32 5
  %54 = load i32, ptr %53, align 8, !tbaa !96
  call void (ptr, i32, ptr, ...) @av_log(ptr noundef %51, i32 noundef 16, ptr noundef @.str.15, i32 noundef %54)
  store i32 -22, ptr %5, align 4
  store i32 1, ptr %13, align 4
  br label %140

55:                                               ; preds = %47
  %56 = load ptr, ptr %12, align 8, !tbaa !73
  %57 = getelementptr inbounds nuw %struct.IAMFCodecConfig, ptr %56, i32 0, i32 5
  %58 = load i32, ptr %57, align 4, !tbaa !108
  %59 = load ptr, ptr %7, align 8, !tbaa !95
  %60 = getelementptr inbounds nuw %struct.AVIAMFParamDefinition, ptr %59, i32 0, i32 6
  store i32 %58, ptr %60, align 4, !tbaa !127
  br label %61

61:                                               ; preds = %55, %42
  %62 = load ptr, ptr %12, align 8, !tbaa !73
  %63 = icmp ne ptr %62, null
  br i1 %63, label %64, label %109

64:                                               ; preds = %61
  %65 = load ptr, ptr %7, align 8, !tbaa !95
  %66 = getelementptr inbounds nuw %struct.AVIAMFParamDefinition, ptr %65, i32 0, i32 7
  %67 = load i32, ptr %66, align 8, !tbaa !128
  %68 = icmp ne i32 %67, 0
  br i1 %68, label %86, label %69

69:                                               ; preds = %64
  %70 = load ptr, ptr %12, align 8, !tbaa !73
  %71 = getelementptr inbounds nuw %struct.IAMFCodecConfig, ptr %70, i32 0, i32 3
  %72 = load i32, ptr %71, align 4, !tbaa !111
  %73 = zext i32 %72 to i64
  %74 = load ptr, ptr %7, align 8, !tbaa !95
  %75 = getelementptr inbounds nuw %struct.AVIAMFParamDefinition, ptr %74, i32 0, i32 6
  %76 = load i32, ptr %75, align 4, !tbaa !127
  %77 = zext i32 %76 to i64
  %78 = load ptr, ptr %12, align 8, !tbaa !73
  %79 = getelementptr inbounds nuw %struct.IAMFCodecConfig, ptr %78, i32 0, i32 5
  %80 = load i32, ptr %79, align 4, !tbaa !108
  %81 = sext i32 %80 to i64
  %82 = call i64 @av_rescale(i64 noundef %73, i64 noundef %77, i64 noundef %81) #11
  %83 = trunc i64 %82 to i32
  %84 = load ptr, ptr %7, align 8, !tbaa !95
  %85 = getelementptr inbounds nuw %struct.AVIAMFParamDefinition, ptr %84, i32 0, i32 7
  store i32 %83, ptr %85, align 8, !tbaa !128
  br label %86

86:                                               ; preds = %69, %64
  %87 = load ptr, ptr %7, align 8, !tbaa !95
  %88 = getelementptr inbounds nuw %struct.AVIAMFParamDefinition, ptr %87, i32 0, i32 8
  %89 = load i32, ptr %88, align 4, !tbaa !129
  %90 = icmp ne i32 %89, 0
  br i1 %90, label %108, label %91

91:                                               ; preds = %86
  %92 = load ptr, ptr %12, align 8, !tbaa !73
  %93 = getelementptr inbounds nuw %struct.IAMFCodecConfig, ptr %92, i32 0, i32 3
  %94 = load i32, ptr %93, align 4, !tbaa !111
  %95 = zext i32 %94 to i64
  %96 = load ptr, ptr %7, align 8, !tbaa !95
  %97 = getelementptr inbounds nuw %struct.AVIAMFParamDefinition, ptr %96, i32 0, i32 6
  %98 = load i32, ptr %97, align 4, !tbaa !127
  %99 = zext i32 %98 to i64
  %100 = load ptr, ptr %12, align 8, !tbaa !73
  %101 = getelementptr inbounds nuw %struct.IAMFCodecConfig, ptr %100, i32 0, i32 5
  %102 = load i32, ptr %101, align 4, !tbaa !108
  %103 = sext i32 %102 to i64
  %104 = call i64 @av_rescale(i64 noundef %95, i64 noundef %99, i64 noundef %103) #11
  %105 = trunc i64 %104 to i32
  %106 = load ptr, ptr %7, align 8, !tbaa !95
  %107 = getelementptr inbounds nuw %struct.AVIAMFParamDefinition, ptr %106, i32 0, i32 8
  store i32 %105, ptr %107, align 4, !tbaa !129
  br label %108

108:                                              ; preds = %91, %86
  br label %109

109:                                              ; preds = %108, %61
  %110 = call noalias ptr @av_mallocz(i64 noundef 32)
  store ptr %110, ptr %11, align 8, !tbaa !98
  %111 = load ptr, ptr %11, align 8, !tbaa !98
  %112 = icmp ne ptr %111, null
  br i1 %112, label %114, label %113

113:                                              ; preds = %109
  store i32 -12, ptr %5, align 4
  store i32 1, ptr %13, align 4
  br label %140

114:                                              ; preds = %109
  %115 = load ptr, ptr %7, align 8, !tbaa !95
  %116 = getelementptr inbounds nuw %struct.AVIAMFParamDefinition, ptr %115, i32 0, i32 7
  %117 = load i32, ptr %116, align 8, !tbaa !128
  %118 = icmp ne i32 %117, 0
  %119 = xor i1 %118, true
  %120 = xor i1 %119, true
  %121 = zext i1 %120 to i32
  %122 = load ptr, ptr %11, align 8, !tbaa !98
  %123 = getelementptr inbounds nuw %struct.IAMFParamDefinition, ptr %122, i32 0, i32 2
  store i32 %121, ptr %123, align 8, !tbaa !130
  %124 = load ptr, ptr %7, align 8, !tbaa !95
  %125 = load ptr, ptr %11, align 8, !tbaa !98
  %126 = getelementptr inbounds nuw %struct.IAMFParamDefinition, ptr %125, i32 0, i32 1
  store ptr %124, ptr %126, align 8, !tbaa !123
  %127 = load ptr, ptr %8, align 8, !tbaa !66
  %128 = load ptr, ptr %11, align 8, !tbaa !98
  %129 = getelementptr inbounds nuw %struct.IAMFParamDefinition, ptr %128, i32 0, i32 0
  store ptr %127, ptr %129, align 8, !tbaa !131
  %130 = load ptr, ptr %11, align 8, !tbaa !98
  %131 = load ptr, ptr %6, align 8, !tbaa !4
  %132 = getelementptr inbounds nuw %struct.IAMFContext, ptr %131, i32 0, i32 6
  %133 = load ptr, ptr %132, align 8, !tbaa !122
  %134 = load ptr, ptr %6, align 8, !tbaa !4
  %135 = getelementptr inbounds nuw %struct.IAMFContext, ptr %134, i32 0, i32 7
  %136 = load i32, ptr %135, align 8, !tbaa !121
  %137 = add nsw i32 %136, 1
  store i32 %137, ptr %135, align 8, !tbaa !121
  %138 = sext i32 %136 to i64
  %139 = getelementptr inbounds ptr, ptr %133, i64 %138
  store ptr %130, ptr %139, align 8, !tbaa !98
  store i32 0, ptr %5, align 4
  store i32 1, ptr %13, align 4
  br label %140

140:                                              ; preds = %114, %113, %50, %25
  call void @llvm.lifetime.end.p0(i64 8, ptr %12) #10
  call void @llvm.lifetime.end.p0(i64 8, ptr %11) #10
  call void @llvm.lifetime.end.p0(i64 8, ptr %10) #10
  %141 = load i32, ptr %5, align 4
  ret i32 %141
}