; Function Attrs: nounwind uwtable
define internal fastcc range(i32 -22, 1) i32 @add_param_definition(ptr noundef captures(none) %0, ptr noundef nonnull %1, ptr noundef %2, ptr noundef %3) unnamed_addr #0 {
  %5 = getelementptr inbounds nuw i8, ptr %0, i64 48
  %6 = load ptr, ptr %5, align 8, !tbaa !106
  %7 = getelementptr inbounds nuw i8, ptr %0, i64 56
  %8 = load i32, ptr %7, align 8, !tbaa !105
  %9 = add nsw i32 %8, 1
  %10 = sext i32 %9 to i64
  %11 = tail call ptr @av_realloc_array(ptr noundef %6, i64 noundef %10, i64 noundef 8) #9
  %.not = icmp eq ptr %11, null
  br i1 %.not, label %70, label %12

12:                                               ; preds = %4
  store ptr %11, ptr %5, align 8, !tbaa !106
  %.not39 = icmp eq ptr %2, null
  br i1 %.not39, label %.thread, label %13

13:                                               ; preds = %12
  %14 = load ptr, ptr %0, align 8, !tbaa !81
  %15 = getelementptr inbounds nuw i8, ptr %2, i64 36
  %16 = load i32, ptr %15, align 4, !tbaa !87
  %17 = zext i32 %16 to i64
  %18 = getelementptr inbounds nuw ptr, ptr %14, i64 %17
  %19 = load ptr, ptr %18, align 8, !tbaa !82
  %20 = getelementptr inbounds nuw i8, ptr %1, i64 36
  %21 = load i32, ptr %20, align 4, !tbaa !114
  %.not40 = icmp eq i32 %21, 0
  %.not41 = icmp eq ptr %19, null
  br i1 %.not40, label %24, label %29

.thread:                                          ; preds = %12
  %22 = getelementptr inbounds nuw i8, ptr %1, i64 36
  %23 = load i32, ptr %22, align 4, !tbaa !114
  %.not4047 = icmp eq i32 %23, 0
  br i1 %.not4047, label %.thread50, label %.thread53

24:                                               ; preds = %13
  br i1 %.not41, label %.thread50, label %.thread56

.thread50:                                        ; preds = %.thread, %24
  %25 = getelementptr inbounds nuw i8, ptr %1, i64 32
  %26 = load i32, ptr %25, align 8, !tbaa !103
  tail call void (ptr, i32, ptr, ...) @av_log(ptr noundef %3, i32 noundef 16, ptr noundef nonnull @.str.15, i32 noundef %26) #9
  br label %70

.thread56:                                        ; preds = %24
  %27 = getelementptr inbounds nuw i8, ptr %19, i64 20
  %28 = load i32, ptr %27, align 4, !tbaa !71
  store i32 %28, ptr %20, align 4, !tbaa !114
  br label %30

29:                                               ; preds = %13
  br i1 %.not41, label %.thread53, label %30

30:                                               ; preds = %.thread56, %29
  %31 = phi i32 [ %28, %.thread56 ], [ %21, %29 ]
  %32 = getelementptr inbounds nuw i8, ptr %1, i64 40
  %33 = load i32, ptr %32, align 8, !tbaa !115
  %.not43 = icmp eq i32 %33, 0
  br i1 %.not43, label %34, label %44

34:                                               ; preds = %30
  %35 = getelementptr inbounds nuw i8, ptr %19, i64 12
  %36 = load i32, ptr %35, align 4, !tbaa !74
  %37 = zext i32 %36 to i64
  %38 = zext i32 %31 to i64
  %39 = getelementptr inbounds nuw i8, ptr %19, i64 20
  %40 = load i32, ptr %39, align 4, !tbaa !71
  %41 = sext i32 %40 to i64
  %42 = tail call i64 @av_rescale(i64 noundef %37, i64 noundef %38, i64 noundef %41) #10
  %43 = trunc i64 %42 to i32
  store i32 %43, ptr %32, align 8, !tbaa !115
  br label %44

44:                                               ; preds = %34, %30
  %45 = getelementptr inbounds nuw i8, ptr %1, i64 44
  %46 = load i32, ptr %45, align 4, !tbaa !116
  %.not44 = icmp eq i32 %46, 0
  br i1 %.not44, label %47, label %.thread53

47:                                               ; preds = %44
  %48 = getelementptr inbounds nuw i8, ptr %19, i64 12
  %49 = load i32, ptr %48, align 4, !tbaa !74
  %50 = zext i32 %49 to i64
  %51 = zext i32 %31 to i64
  %52 = getelementptr inbounds nuw i8, ptr %19, i64 20
  %53 = load i32, ptr %52, align 4, !tbaa !71
  %54 = sext i32 %53 to i64
  %55 = tail call i64 @av_rescale(i64 noundef %50, i64 noundef %51, i64 noundef %54) #10
  %56 = trunc i64 %55 to i32
  store i32 %56, ptr %45, align 4, !tbaa !116
  br label %.thread53

.thread53:                                        ; preds = %.thread, %44, %47, %29
  %57 = tail call noalias ptr @av_mallocz(i64 noundef 32) #9
  %.not45 = icmp eq ptr %57, null
  br i1 %.not45, label %70, label %58

58:                                               ; preds = %.thread53
  %59 = getelementptr inbounds nuw i8, ptr %1, i64 40
  %60 = load i32, ptr %59, align 8, !tbaa !115
  %61 = icmp ne i32 %60, 0
  %62 = zext i1 %61 to i32
  %63 = getelementptr inbounds nuw i8, ptr %57, i64 16
  store i32 %62, ptr %63, align 8, !tbaa !117
  %64 = getelementptr inbounds nuw i8, ptr %57, i64 8
  store ptr %1, ptr %64, align 8, !tbaa !110
  store ptr %2, ptr %57, align 8, !tbaa !118
  %65 = load ptr, ptr %5, align 8, !tbaa !106
  %66 = load i32, ptr %7, align 8, !tbaa !105
  %67 = add nsw i32 %66, 1
  store i32 %67, ptr %7, align 8, !tbaa !105
  %68 = sext i32 %66 to i64
  %69 = getelementptr inbounds ptr, ptr %65, i64 %68
  store ptr %57, ptr %69, align 8, !tbaa !108
  br label %70

70:                                               ; preds = %.thread53, %4, %58, %.thread50
  %.035 = phi i32 [ 0, %58 ], [ -22, %.thread50 ], [ -12, %4 ], [ -12, %.thread53 ]
  ret i32 %.035
}